; ModuleID = '9/73.c'
source_filename = "9/73.c"
target datalayout = "e-m:e-p270:32:32-p271:32:32-p272:64:64-i64:64-f80:128-n8:16:32:64-S128"
target triple = "x86_64-pc-linux-gnu"

@.str = private unnamed_addr constant [3 x i8] c"%d\00", align 1
@.str.1 = private unnamed_addr constant [5 x i8] c"%s%d\00", align 1
@.str.2 = private unnamed_addr constant [4 x i8] c"%s\0A\00", align 1

; Function Attrs: noinline nounwind uwtable
define dso_local void @main() #0 {
  %1 = alloca [100 x [10 x i8]], align 16
  %2 = alloca [100 x [10 x i8]], align 16
  %3 = alloca [100 x [10 x i8]], align 16
  %4 = alloca [100 x i8], align 16
  %5 = alloca [100 x i32], align 16
  %6 = alloca [100 x i32], align 16
  %7 = alloca [100 x i32], align 16
  %8 = alloca i32, align 4
  %9 = alloca i32, align 4
  %10 = alloca i32, align 4
  %11 = alloca i32, align 4
  %12 = alloca i32, align 4
  %13 = alloca i32, align 4
  %14 = alloca i32, align 4
  %15 = bitcast [100 x [10 x i8]]* %1 to i8*
  call void @llvm.memset.p0i8.i64(i8* align 16 %15, i8 0, i64 1000, i1 false)
  %16 = bitcast [100 x [10 x i8]]* %2 to i8*
  call void @llvm.memset.p0i8.i64(i8* align 16 %16, i8 0, i64 1000, i1 false)
  %17 = bitcast [100 x [10 x i8]]* %3 to i8*
  call void @llvm.memset.p0i8.i64(i8* align 16 %17, i8 0, i64 1000, i1 false)
  %18 = bitcast [100 x i8]* %4 to i8*
  call void @llvm.memset.p0i8.i64(i8* align 16 %18, i8 0, i64 100, i1 false)
  %19 = bitcast [100 x i32]* %5 to i8*
  call void @llvm.memset.p0i8.i64(i8* align 16 %19, i8 0, i64 400, i1 false)
  %20 = bitcast [100 x i32]* %6 to i8*
  call void @llvm.memset.p0i8.i64(i8* align 16 %20, i8 0, i64 400, i1 false)
  %21 = bitcast [100 x i32]* %7 to i8*
  call void @llvm.memset.p0i8.i64(i8* align 16 %21, i8 0, i64 400, i1 false)
  store i32 0, i32* %10, align 4
  store i32 0, i32* %11, align 4
  store i32 0, i32* %12, align 4
  %22 = call i32 (i8*, ...) @__isoc99_scanf(i8* getelementptr inbounds ([3 x i8], [3 x i8]* @.str, i64 0, i64 0), i32* %9)
  store i32 0, i32* %8, align 4
  br label %23

23:                                               ; preds = %36, %0
  %24 = load i32, i32* %8, align 4
  %25 = load i32, i32* %9, align 4
  %26 = icmp slt i32 %24, %25
  br i1 %26, label %27, label %39

27:                                               ; preds = %23
  %28 = load i32, i32* %8, align 4
  %29 = sext i32 %28 to i64
  %30 = getelementptr inbounds [100 x [10 x i8]], [100 x [10 x i8]]* %1, i64 0, i64 %29
  %31 = getelementptr inbounds [10 x i8], [10 x i8]* %30, i64 0, i64 0
  %32 = load i32, i32* %8, align 4
  %33 = sext i32 %32 to i64
  %34 = getelementptr inbounds [100 x i32], [100 x i32]* %5, i64 0, i64 %33
  %35 = call i32 (i8*, ...) @__isoc99_scanf(i8* getelementptr inbounds ([5 x i8], [5 x i8]* @.str.1, i64 0, i64 0), i8* %31, i32* %34)
  br label %36

36:                                               ; preds = %27
  %37 = load i32, i32* %8, align 4
  %38 = add nsw i32 %37, 1
  store i32 %38, i32* %8, align 4
  br label %23

39:                                               ; preds = %23
  store i32 0, i32* %8, align 4
  br label %40

40:                                               ; preds = %89, %39
  %41 = load i32, i32* %8, align 4
  %42 = load i32, i32* %9, align 4
  %43 = icmp slt i32 %41, %42
  br i1 %43, label %44, label %92

44:                                               ; preds = %40
  %45 = load i32, i32* %8, align 4
  %46 = sext i32 %45 to i64
  %47 = getelementptr inbounds [100 x i32], [100 x i32]* %5, i64 0, i64 %46
  %48 = load i32, i32* %47, align 4
  %49 = icmp slt i32 %48, 60
  br i1 %49, label %50, label %69

50:                                               ; preds = %44
  %51 = load i32, i32* %10, align 4
  %52 = sext i32 %51 to i64
  %53 = getelementptr inbounds [100 x [10 x i8]], [100 x [10 x i8]]* %2, i64 0, i64 %52
  %54 = getelementptr inbounds [10 x i8], [10 x i8]* %53, i64 0, i64 0
  %55 = load i32, i32* %8, align 4
  %56 = sext i32 %55 to i64
  %57 = getelementptr inbounds [100 x [10 x i8]], [100 x [10 x i8]]* %1, i64 0, i64 %56
  %58 = getelementptr inbounds [10 x i8], [10 x i8]* %57, i64 0, i64 0
  %59 = call i8* @strcpy(i8* %54, i8* %58) #4
  %60 = load i32, i32* %8, align 4
  %61 = sext i32 %60 to i64
  %62 = getelementptr inbounds [100 x i32], [100 x i32]* %5, i64 0, i64 %61
  %63 = load i32, i32* %62, align 4
  %64 = load i32, i32* %10, align 4
  %65 = sext i32 %64 to i64
  %66 = getelementptr inbounds [100 x i32], [100 x i32]* %6, i64 0, i64 %65
  store i32 %63, i32* %66, align 4
  %67 = load i32, i32* %10, align 4
  %68 = add nsw i32 %67, 1
  store i32 %68, i32* %10, align 4
  br label %88

69:                                               ; preds = %44
  %70 = load i32, i32* %11, align 4
  %71 = sext i32 %70 to i64
  %72 = getelementptr inbounds [100 x [10 x i8]], [100 x [10 x i8]]* %3, i64 0, i64 %71
  %73 = getelementptr inbounds [10 x i8], [10 x i8]* %72, i64 0, i64 0
  %74 = load i32, i32* %8, align 4
  %75 = sext i32 %74 to i64
  %76 = getelementptr inbounds [100 x [10 x i8]], [100 x [10 x i8]]* %1, i64 0, i64 %75
  %77 = getelementptr inbounds [10 x i8], [10 x i8]* %76, i64 0, i64 0
  %78 = call i8* @strcpy(i8* %73, i8* %77) #4
  %79 = load i32, i32* %8, align 4
  %80 = sext i32 %79 to i64
  %81 = getelementptr inbounds [100 x i32], [100 x i32]* %5, i64 0, i64 %80
  %82 = load i32, i32* %81, align 4
  %83 = load i32, i32* %11, align 4
  %84 = sext i32 %83 to i64
  %85 = getelementptr inbounds [100 x i32], [100 x i32]* %7, i64 0, i64 %84
  store i32 %82, i32* %85, align 4
  %86 = load i32, i32* %11, align 4
  %87 = add nsw i32 %86, 1
  store i32 %87, i32* %11, align 4
  br label %88

88:                                               ; preds = %69, %50
  br label %89

89:                                               ; preds = %88
  %90 = load i32, i32* %8, align 4
  %91 = add nsw i32 %90, 1
  store i32 %91, i32* %8, align 4
  br label %40

92:                                               ; preds = %40
  store i32 0, i32* %13, align 4
  br label %93

93:                                               ; preds = %163, %92
  %94 = load i32, i32* %13, align 4
  %95 = load i32, i32* %11, align 4
  %96 = sub nsw i32 %95, 1
  %97 = icmp slt i32 %94, %96
  br i1 %97, label %98, label %166

98:                                               ; preds = %93
  store i32 0, i32* %14, align 4
  br label %99

99:                                               ; preds = %159, %98
  %100 = load i32, i32* %14, align 4
  %101 = load i32, i32* %11, align 4
  %102 = load i32, i32* %13, align 4
  %103 = sub nsw i32 %101, %102
  %104 = sub nsw i32 %103, 1
  %105 = icmp slt i32 %100, %104
  br i1 %105, label %106, label %162

106:                                              ; preds = %99
  %107 = load i32, i32* %14, align 4
  %108 = sext i32 %107 to i64
  %109 = getelementptr inbounds [100 x i32], [100 x i32]* %7, i64 0, i64 %108
  %110 = load i32, i32* %109, align 4
  %111 = load i32, i32* %14, align 4
  %112 = add nsw i32 %111, 1
  %113 = sext i32 %112 to i64
  %114 = getelementptr inbounds [100 x i32], [100 x i32]* %7, i64 0, i64 %113
  %115 = load i32, i32* %114, align 4
  %116 = icmp slt i32 %110, %115
  br i1 %116, label %117, label %158

117:                                              ; preds = %106
  %118 = load i32, i32* %14, align 4
  %119 = sext i32 %118 to i64
  %120 = getelementptr inbounds [100 x i32], [100 x i32]* %7, i64 0, i64 %119
  %121 = load i32, i32* %120, align 4
  store i32 %121, i32* %12, align 4
  %122 = load i32, i32* %14, align 4
  %123 = add nsw i32 %122, 1
  %124 = sext i32 %123 to i64
  %125 = getelementptr inbounds [100 x i32], [100 x i32]* %7, i64 0, i64 %124
  %126 = load i32, i32* %125, align 4
  %127 = load i32, i32* %14, align 4
  %128 = sext i32 %127 to i64
  %129 = getelementptr inbounds [100 x i32], [100 x i32]* %7, i64 0, i64 %128
  store i32 %126, i32* %129, align 4
  %130 = load i32, i32* %12, align 4
  %131 = load i32, i32* %14, align 4
  %132 = add nsw i32 %131, 1
  %133 = sext i32 %132 to i64
  %134 = getelementptr inbounds [100 x i32], [100 x i32]* %7, i64 0, i64 %133
  store i32 %130, i32* %134, align 4
  %135 = getelementptr inbounds [100 x i8], [100 x i8]* %4, i64 0, i64 0
  %136 = load i32, i32* %14, align 4
  %137 = sext i32 %136 to i64
  %138 = getelementptr inbounds [100 x [10 x i8]], [100 x [10 x i8]]* %3, i64 0, i64 %137
  %139 = getelementptr inbounds [10 x i8], [10 x i8]* %138, i64 0, i64 0
  %140 = call i8* @strcpy(i8* %135, i8* %139) #4
  %141 = load i32, i32* %14, align 4
  %142 = sext i32 %141 to i64
  %143 = getelementptr inbounds [100 x [10 x i8]], [100 x [10 x i8]]* %3, i64 0, i64 %142
  %144 = getelementptr inbounds [10 x i8], [10 x i8]* %143, i64 0, i64 0
  %145 = load i32, i32* %14, align 4
  %146 = add nsw i32 %145, 1
  %147 = sext i32 %146 to i64
  %148 = getelementptr inbounds [100 x [10 x i8]], [100 x [10 x i8]]* %3, i64 0, i64 %147
  %149 = getelementptr inbounds [10 x i8], [10 x i8]* %148, i64 0, i64 0
  %150 = call i8* @strcpy(i8* %144, i8* %149) #4
  %151 = load i32, i32* %14, align 4
  %152 = add nsw i32 %151, 1
  %153 = sext i32 %152 to i64
  %154 = getelementptr inbounds [100 x [10 x i8]], [100 x [10 x i8]]* %3, i64 0, i64 %153
  %155 = getelementptr inbounds [10 x i8], [10 x i8]* %154, i64 0, i64 0
  %156 = getelementptr inbounds [100 x i8], [100 x i8]* %4, i64 0, i64 0
  %157 = call i8* @strcpy(i8* %155, i8* %156) #4
  br label %158

158:                                              ; preds = %117, %106
  br label %159

159:                                              ; preds = %158
  %160 = load i32, i32* %14, align 4
  %161 = add nsw i32 %160, 1
  store i32 %161, i32* %14, align 4
  br label %99

162:                                              ; preds = %99
  br label %163

163:                                              ; preds = %162
  %164 = load i32, i32* %13, align 4
  %165 = add nsw i32 %164, 1
  store i32 %165, i32* %13, align 4
  br label %93

166:                                              ; preds = %93
  store i32 0, i32* %13, align 4
  br label %167

167:                                              ; preds = %177, %166
  %168 = load i32, i32* %13, align 4
  %169 = load i32, i32* %11, align 4
  %170 = icmp slt i32 %168, %169
  br i1 %170, label %171, label %180

171:                                              ; preds = %167
  %172 = load i32, i32* %13, align 4
  %173 = sext i32 %172 to i64
  %174 = getelementptr inbounds [100 x [10 x i8]], [100 x [10 x i8]]* %3, i64 0, i64 %173
  %175 = getelementptr inbounds [10 x i8], [10 x i8]* %174, i64 0, i64 0
  %176 = call i32 (i8*, ...) @printf(i8* getelementptr inbounds ([4 x i8], [4 x i8]* @.str.2, i64 0, i64 0), i8* %175)
  br label %177

177:                                              ; preds = %171
  %178 = load i32, i32* %13, align 4
  %179 = add nsw i32 %178, 1
  store i32 %179, i32* %13, align 4
  br label %167

180:                                              ; preds = %167
  store i32 0, i32* %14, align 4
  br label %181

181:                                              ; preds = %191, %180
  %182 = load i32, i32* %14, align 4
  %183 = load i32, i32* %10, align 4
  %184 = icmp slt i32 %182, %183
  br i1 %184, label %185, label %194

185:                                              ; preds = %181
  %186 = load i32, i32* %14, align 4
  %187 = sext i32 %186 to i64
  %188 = getelementptr inbounds [100 x [10 x i8]], [100 x [10 x i8]]* %2, i64 0, i64 %187
  %189 = getelementptr inbounds [10 x i8], [10 x i8]* %188, i64 0, i64 0
  %190 = call i32 (i8*, ...) @printf(i8* getelementptr inbounds ([4 x i8], [4 x i8]* @.str.2, i64 0, i64 0), i8* %189)
  br label %191

191:                                              ; preds = %185
  %192 = load i32, i32* %14, align 4
  %193 = add nsw i32 %192, 1
  store i32 %193, i32* %14, align 4
  br label %181

194:                                              ; preds = %181
  ret void
}

; Function Attrs: argmemonly nounwind willreturn
declare void @llvm.memset.p0i8.i64(i8* nocapture writeonly, i8, i64, i1 immarg) #1

declare dso_local i32 @__isoc99_scanf(i8*, ...) #2

; Function Attrs: nounwind
declare dso_local i8* @strcpy(i8*, i8*) #3

declare dso_local i32 @printf(i8*, ...) #2


!llvm.module.flags = !{!0}
!llvm.ident = !{!1}

!0 = !{i32 1, !"wchar_size", i32 4}
!1 = !{!"clang version 10.0.0-4ubuntu1 "}
